target datalayout = "e-m:e-p270:32:32-p271:32:32-p272:64:64-i64:64-i128:128-f80:128-n8:16:32:64-S128"
target triple = "x86_64-pc-linux-gnu"

; Function Attrs: nounwind sspstrong uwtable
define internal double @load_mantissa(double noundef %0, ptr noundef %1, i64 noundef %2) #0 {
  %4 = alloca double, align 8
  %5 = alloca double, align 8
  %6 = alloca ptr, align 8
  %7 = alloca i64, align 8
  %8 = alloca i32, align 4
  %9 = alloca i32, align 4
  %10 = alloca i32, align 4
  %11 = alloca i64, align 8
  store double %0, ptr %5, align 8, !tbaa !99
  store ptr %1, ptr %6, align 8, !tbaa !20
  store i64 %2, ptr %7, align 8, !tbaa !7
  %12 = load i64, ptr %7, align 8, !tbaa !7
  %13 = icmp ne i64 %12, 0
  br i1 %13, label %16, label %14

14:                                               ; preds = %3
  %15 = load double, ptr %5, align 8, !tbaa !99
  store double %15, ptr %4, align 8
  br label %108

16:                                               ; preds = %3
  %17 = load i64, ptr %7, align 8, !tbaa !7
  %18 = add i64 %17, -1
  store i64 %18, ptr %7, align 8, !tbaa !7
  %19 = icmp sgt i64 %18, 0
  br i1 %19, label %20, label %106

20:                                               ; preds = %16
  %21 = load ptr, ptr %6, align 8, !tbaa !20
  %22 = getelementptr i8, ptr %21, i32 1
  store ptr %22, ptr %6, align 8, !tbaa !20
  %23 = load i8, ptr %21, align 1, !tbaa !24
  %24 = icmp ne i8 %23, 0
  br i1 %24, label %106, label %25

25:                                               ; preds = %20
  call void @llvm.lifetime.start.p0(i64 4, ptr %8) #23
  call void @llvm.lifetime.start.p0(i64 4, ptr %9) #23
  %26 = load double, ptr %5, align 8, !tbaa !99
  %27 = fcmp olt double %26, 0.000000e+00
  %28 = zext i1 %27 to i32
  store i32 %28, ptr %9, align 4, !tbaa !22
  call void @llvm.lifetime.start.p0(i64 4, ptr %10) #23
  store i32 0, ptr %10, align 4, !tbaa !22
  call void @llvm.lifetime.start.p0(i64 8, ptr %11) #23
  %29 = load double, ptr %5, align 8, !tbaa !99
  %30 = call double @llvm.fabs.f64(double %29)
  %31 = call double @frexp(double noundef %30, ptr noundef %8) #23
  %32 = call double @ldexp(double noundef %31, i32 noundef 37) #23, !tbaa !22
  %33 = call double @modf(double noundef %32, ptr noundef %5) #23
  br label %34

34:                                               ; preds = %91, %25
  store i64 0, ptr %11, align 8, !tbaa !7
  %35 = load i64, ptr %7, align 8, !tbaa !7
  switch i64 %35, label %36 [
    i64 3, label %43
    i64 2, label %53
    i64 1, label %63
  ]

36:                                               ; preds = %34
  %37 = load ptr, ptr %6, align 8, !tbaa !20
  %38 = getelementptr i8, ptr %37, i32 1
  store ptr %38, ptr %6, align 8, !tbaa !20
  %39 = load i8, ptr %37, align 1, !tbaa !24
  %40 = sext i8 %39 to i32
  %41 = and i32 %40, 255
  %42 = sext i32 %41 to i64
  store i64 %42, ptr %11, align 8, !tbaa !7
  br label %43

43:                                               ; preds = %34, %36
  %44 = load i64, ptr %11, align 8, !tbaa !7
  %45 = shl i64 %44, 8
  %46 = load ptr, ptr %6, align 8, !tbaa !20
  %47 = getelementptr i8, ptr %46, i32 1
  store ptr %47, ptr %6, align 8, !tbaa !20
  %48 = load i8, ptr %46, align 1, !tbaa !24
  %49 = sext i8 %48 to i32
  %50 = and i32 %49, 255
  %51 = sext i32 %50 to i64
  %52 = or i64 %45, %51
  store i64 %52, ptr %11, align 8, !tbaa !7
  br label %53

53:                                               ; preds = %34, %43
  %54 = load i64, ptr %11, align 8, !tbaa !7
  %55 = shl i64 %54, 8
  %56 = load ptr, ptr %6, align 8, !tbaa !20
  %57 = getelementptr i8, ptr %56, i32 1
  store ptr %57, ptr %6, align 8, !tbaa !20
  %58 = load i8, ptr %56, align 1, !tbaa !24
  %59 = sext i8 %58 to i32
  %60 = and i32 %59, 255
  %61 = sext i32 %60 to i64
  %62 = or i64 %55, %61
  store i64 %62, ptr %11, align 8, !tbaa !7
  br label %63

63:                                               ; preds = %34, %53
  %64 = load i64, ptr %11, align 8, !tbaa !7
  %65 = shl i64 %64, 8
  %66 = load ptr, ptr %6, align 8, !tbaa !20
  %67 = getelementptr i8, ptr %66, i32 1
  store ptr %67, ptr %6, align 8, !tbaa !20
  %68 = load i8, ptr %66, align 1, !tbaa !24
  %69 = sext i8 %68 to i32
  %70 = and i32 %69, 255
  %71 = sext i32 %70 to i64
  %72 = or i64 %65, %71
  store i64 %72, ptr %11, align 8, !tbaa !7
  br label %73

73:                                               ; preds = %63
  %74 = load i64, ptr %7, align 8, !tbaa !7
  %75 = icmp slt i64 %74, 4
  br i1 %75, label %76, label %80

76:                                               ; preds = %73
  %77 = load i64, ptr %7, align 8, !tbaa !7
  %78 = trunc i64 %77 to i32
  %79 = mul i32 8, %78
  br label %81

80:                                               ; preds = %73
  br label %81

81:                                               ; preds = %80, %76
  %82 = phi i32 [ %79, %76 ], [ 32, %80 ]
  %83 = load i32, ptr %10, align 4, !tbaa !22
  %84 = sub i32 %83, %82
  store i32 %84, ptr %10, align 4, !tbaa !22
  %85 = load i64, ptr %11, align 8, !tbaa !7
  %86 = uitofp i64 %85 to double
  %87 = load i32, ptr %10, align 4, !tbaa !22
  %88 = call double @ldexp(double noundef %86, i32 noundef %87) #23, !tbaa !22
  %89 = load double, ptr %5, align 8, !tbaa !99
  %90 = fadd double %89, %88
  store double %90, ptr %5, align 8, !tbaa !99
  br label %91

91:                                               ; preds = %81
  %92 = load i64, ptr %7, align 8, !tbaa !7
  %93 = sub i64 %92, 4
  store i64 %93, ptr %7, align 8, !tbaa !7
  %94 = icmp sgt i64 %93, 0
  br i1 %94, label %34, label %95, !llvm.loop !143

95:                                               ; preds = %91
  %96 = load double, ptr %5, align 8, !tbaa !99
  %97 = load i32, ptr %8, align 4, !tbaa !22
  %98 = sub i32 %97, 37
  %99 = call double @ldexp(double noundef %96, i32 noundef %98) #23, !tbaa !22
  store double %99, ptr %5, align 8, !tbaa !99
  %100 = load i32, ptr %9, align 4, !tbaa !22
  %101 = icmp ne i32 %100, 0
  br i1 %101, label %102, label %105

102:                                              ; preds = %95
  %103 = load double, ptr %5, align 8, !tbaa !99
  %104 = fneg double %103
  store double %104, ptr %5, align 8, !tbaa !99
  br label %105

105:                                              ; preds = %102, %95
  call void @llvm.lifetime.end.p0(i64 8, ptr %11) #23
  call void @llvm.lifetime.end.p0(i64 4, ptr %10) #23
  call void @llvm.lifetime.end.p0(i64 4, ptr %9) #23
  call void @llvm.lifetime.end.p0(i64 4, ptr %8) #23
  br label %106

106:                                              ; preds = %105, %20, %16
  %107 = load double, ptr %5, align 8, !tbaa !99
  store double %107, ptr %4, align 8
  br label %108

108:                                              ; preds = %106, %14
  %109 = load double, ptr %4, align 8
  ret double %109
}