; Function Attrs: nofree nounwind sspstrong uwtable
define internal fastcc double @load_mantissa(double noundef %0, ptr noundef readonly captures(none) %1, i64 noundef %2) unnamed_addr #15 {
  %4 = alloca double, align 8
  %5 = alloca i32, align 4
  store double %0, ptr %4, align 8, !tbaa !173
  %.not = icmp eq i64 %2, 0
  br i1 %.not, label %55, label %6

6:                                                ; preds = %3
  %7 = add i64 %2, -1
  %8 = icmp sgt i64 %7, 0
  br i1 %8, label %9, label %55

9:                                                ; preds = %6
  %10 = load i8, ptr %1, align 1, !tbaa !17
  %.not27 = icmp eq i8 %10, 0
  br i1 %.not27, label %11, label %55

11:                                               ; preds = %9
  call void @llvm.lifetime.start.p0(i64 4, ptr nonnull %5) #22
  %12 = tail call double @llvm.fabs.f64(double %0)
  %13 = call double @frexp(double noundef %12, ptr noundef nonnull %5) #22
  %14 = tail call double @ldexp(double noundef %13, i32 noundef 37) #22, !tbaa !89
  %15 = call double @modf(double noundef %14, ptr noundef nonnull %4) #22
  %.promoted = load double, ptr %4, align 8, !tbaa !173
  br label %16

16:                                               ; preds = %35, %11
  %17 = phi double [ %.promoted, %11 ], [ %46, %35 ]
  %.pn = phi ptr [ %1, %11 ], [ %.3, %35 ]
  %.020 = phi i64 [ %7, %11 ], [ %47, %35 ]
  %.018 = phi i32 [ 0, %11 ], [ %43, %35 ]
  %.021 = getelementptr i8, ptr %.pn, i64 1
  switch i64 %.020, label %18 [
    i64 3, label %23
    i64 2, label %29
    i64 1, label %35
  ]

18:                                               ; preds = %16
  %19 = getelementptr i8, ptr %.pn, i64 2
  %20 = load i8, ptr %.021, align 1, !tbaa !17
  %21 = zext i8 %20 to i64
  %22 = shl nuw nsw i64 %21, 8
  br label %23

23:                                               ; preds = %18, %16
  %.122 = phi ptr [ %19, %18 ], [ %.021, %16 ]
  %.0 = phi i64 [ %22, %18 ], [ 0, %16 ]
  %24 = getelementptr i8, ptr %.122, i64 1
  %25 = load i8, ptr %.122, align 1, !tbaa !17
  %26 = zext i8 %25 to i64
  %27 = or disjoint i64 %.0, %26
  %28 = shl nuw nsw i64 %27, 8
  br label %29

29:                                               ; preds = %23, %16
  %.223 = phi ptr [ %24, %23 ], [ %.021, %16 ]
  %.1 = phi i64 [ %28, %23 ], [ 0, %16 ]
  %30 = getelementptr i8, ptr %.223, i64 1
  %31 = load i8, ptr %.223, align 1, !tbaa !17
  %32 = zext i8 %31 to i64
  %33 = or disjoint i64 %.1, %32
  %34 = shl nuw nsw i64 %33, 8
  br label %35

35:                                               ; preds = %29, %16
  %.3 = phi ptr [ %30, %29 ], [ %.021, %16 ]
  %.2 = phi i64 [ %34, %29 ], [ 0, %16 ]
  %36 = load i8, ptr %.3, align 1, !tbaa !17
  %37 = zext i8 %36 to i64
  %38 = or disjoint i64 %.2, %37
  %39 = icmp slt i64 %.020, 4
  %40 = trunc i64 %.020 to i32
  %41 = shl i32 %40, 3
  %42 = select i1 %39, i32 %41, i32 32
  %43 = sub i32 %.018, %42
  %44 = uitofp nneg i64 %38 to double
  %45 = tail call double @ldexp(double noundef %44, i32 noundef %43) #22, !tbaa !89
  %46 = fadd double %45, %17
  store double %46, ptr %4, align 8, !tbaa !173
  %47 = add nsw i64 %.020, -4
  %48 = icmp sgt i64 %.020, 4
  br i1 %48, label %16, label %49, !llvm.loop !174

49:                                               ; preds = %35
  %50 = fcmp olt double %0, 0.000000e+00
  %51 = load i32, ptr %5, align 4, !tbaa !89
  %52 = add i32 %51, -37
  %53 = tail call double @ldexp(double noundef %46, i32 noundef %52) #22, !tbaa !89
  %54 = fneg double %53
  %storemerge = select i1 %50, double %54, double %53
  call void @llvm.lifetime.end.p0(i64 4, ptr nonnull %5) #22
  br label %55

55:                                               ; preds = %6, %9, %49, %3
  %.019 = phi double [ %0, %3 ], [ %storemerge, %49 ], [ %0, %9 ], [ %0, %6 ]
  ret double %.019
}